target datalayout = "e-m:e-p270:32:32-p271:32:32-p272:64:64-i64:64-i128:128-f80:128-n8:16:32:64-S128"
target triple = "x86_64-pc-linux-gnu"

%struct.extcap_run_extcaps_info = type { ptr, ptr, i32, ptr }
%struct.thread_pool = type { ptr, i32, %struct._GCond, %union._GMutex }
%struct._GCond = type { ptr, [2 x i32] }
%union._GMutex = type { ptr }
%struct.extcap_run_task = type { ptr, ptr, ptr, ptr }

@__const.extcap_list_interfaces_cb.argv = private unnamed_addr constant [2 x ptr] [ptr @.str.14, ptr null], align 16

; Function Attrs: null_pointer_is_valid sspstrong uwtable
define internal zeroext i1 @thread_pool_push(ptr noundef %0, ptr noundef %1, ptr noundef %2) #0 {
  %4 = alloca ptr, align 8
  %5 = alloca ptr, align 8
  %6 = alloca ptr, align 8
  store ptr %0, ptr %4, align 8
  store ptr %1, ptr %5, align 8
  store ptr %2, ptr %6, align 8
  %7 = load ptr, ptr %4, align 8
  %8 = getelementptr inbounds nuw %struct.thread_pool, ptr %7, i32 0, i32 3
  call void @g_mutex_lock(ptr noundef %8)
  %9 = load ptr, ptr %4, align 8
  %10 = getelementptr inbounds nuw %struct.thread_pool, ptr %9, i32 0, i32 1
  %11 = load i32, ptr %10, align 8
  %12 = add i32 %11, 1
  store i32 %12, ptr %10, align 8
  %13 = load ptr, ptr %4, align 8
  %14 = getelementptr inbounds nuw %struct.thread_pool, ptr %13, i32 0, i32 3
  call void @g_mutex_unlock(ptr noundef %14)
  %15 = load ptr, ptr %4, align 8
  %16 = getelementptr inbounds nuw %struct.thread_pool, ptr %15, i32 0, i32 0
  %17 = load ptr, ptr %16, align 8
  %18 = load ptr, ptr %5, align 8
  %19 = load ptr, ptr %6, align 8
  %20 = call i32 @g_thread_pool_push(ptr noundef %17, ptr noundef %18, ptr noundef %19)
  %21 = icmp ne i32 %20, 0
  ret i1 %21
}

; Function Attrs: null_pointer_is_valid sspstrong uwtable
define internal void @extcap_list_interfaces_cb(ptr noundef %0, ptr noundef %1, ptr noundef %2) #0 {
  %4 = alloca ptr, align 8
  %5 = alloca ptr, align 8
  %6 = alloca ptr, align 8
  %7 = alloca ptr, align 8
  %8 = alloca [2 x ptr], align 16
  %9 = alloca ptr, align 8
  %10 = alloca i64, align 8
  %11 = alloca i64, align 8
  %12 = alloca ptr, align 8
  %13 = alloca ptr, align 8
  store ptr %0, ptr %4, align 8
  store ptr %1, ptr %5, align 8
  store ptr %2, ptr %6, align 8
  call void @llvm.lifetime.start.p0(i64 8, ptr %7) #9
  %14 = load ptr, ptr %5, align 8
  store ptr %14, ptr %7, align 8
  %15 = load ptr, ptr %6, align 8
  %16 = icmp ne ptr %15, null
  br i1 %16, label %64, label %17

17:                                               ; preds = %3
  call void @llvm.lifetime.start.p0(i64 16, ptr %8) #9
  call void @llvm.memcpy.p0.p0.i64(ptr align 16 %8, ptr align 16 @__const.extcap_list_interfaces_cb.argv, i64 16, i1 false)
  call void @llvm.lifetime.start.p0(i64 8, ptr %9) #9
  call void @llvm.lifetime.start.p0(i64 8, ptr %10) #9
  store i64 1, ptr %10, align 8
  call void @llvm.lifetime.start.p0(i64 8, ptr %11) #9
  store i64 32, ptr %11, align 8
  call void @llvm.lifetime.start.p0(i64 8, ptr %12) #9
  %18 = load i64, ptr %11, align 8
  %19 = icmp eq i64 %18, 1
  br i1 %19, label %20, label %23

20:                                               ; preds = %17
  %21 = load i64, ptr %10, align 8
  %22 = call noalias ptr @g_malloc0(i64 noundef %21) #10
  store ptr %22, ptr %12, align 8
  br label %44

23:                                               ; preds = %17
  %24 = load i64, ptr %10, align 8
  %25 = call i1 @llvm.is.constant.i64(i64 %24)
  br i1 %25, label %26, label %39

26:                                               ; preds = %23
  %27 = load i64, ptr %11, align 8
  %28 = icmp eq i64 %27, 0
  br i1 %28, label %34, label %29

29:                                               ; preds = %26
  %30 = load i64, ptr %10, align 8
  %31 = load i64, ptr %11, align 8
  %32 = udiv i64 -1, %31
  %33 = icmp ule i64 %30, %32
  br i1 %33, label %34, label %39

34:                                               ; preds = %29, %26
  %35 = load i64, ptr %10, align 8
  %36 = load i64, ptr %11, align 8
  %37 = mul i64 %35, %36
  %38 = call noalias ptr @g_malloc0(i64 noundef %37) #10
  store ptr %38, ptr %12, align 8
  br label %43

39:                                               ; preds = %29, %23
  %40 = load i64, ptr %10, align 8
  %41 = load i64, ptr %11, align 8
  %42 = call noalias ptr @g_malloc0_n(i64 noundef %40, i64 noundef %41) #11
  store ptr %42, ptr %12, align 8
  br label %43

43:                                               ; preds = %39, %34
  br label %44

44:                                               ; preds = %43, %20
  %45 = load ptr, ptr %12, align 8
  store ptr %45, ptr %13, align 8
  call void @llvm.lifetime.end.p0(i64 8, ptr %12) #9
  call void @llvm.lifetime.end.p0(i64 8, ptr %11) #9
  call void @llvm.lifetime.end.p0(i64 8, ptr %10) #9
  %46 = load ptr, ptr %13, align 8
  store ptr %46, ptr %9, align 8
  %47 = load ptr, ptr %7, align 8
  %48 = getelementptr inbounds nuw %struct.extcap_run_extcaps_info, ptr %47, i32 0, i32 0
  %49 = load ptr, ptr %48, align 8
  %50 = load ptr, ptr %9, align 8
  %51 = getelementptr inbounds nuw %struct.extcap_run_task, ptr %50, i32 0, i32 0
  store ptr %49, ptr %51, align 8
  %52 = getelementptr inbounds [2 x ptr], ptr %8, i64 0, i64 0
  %53 = call ptr @g_strdupv(ptr noundef %52)
  %54 = load ptr, ptr %9, align 8
  %55 = getelementptr inbounds nuw %struct.extcap_run_task, ptr %54, i32 0, i32 1
  store ptr %53, ptr %55, align 8
  %56 = load ptr, ptr %9, align 8
  %57 = getelementptr inbounds nuw %struct.extcap_run_task, ptr %56, i32 0, i32 2
  store ptr @extcap_process_interfaces_cb, ptr %57, align 8
  %58 = load ptr, ptr %7, align 8
  %59 = load ptr, ptr %9, align 8
  %60 = getelementptr inbounds nuw %struct.extcap_run_task, ptr %59, i32 0, i32 3
  store ptr %58, ptr %60, align 8
  %61 = load ptr, ptr %4, align 8
  %62 = load ptr, ptr %9, align 8
  %63 = call zeroext i1 @thread_pool_push(ptr noundef %61, ptr noundef %62, ptr noundef null)
  call void @llvm.lifetime.end.p0(i64 8, ptr %9) #9
  call void @llvm.lifetime.end.p0(i64 16, ptr %8) #9
  br label %68

64:                                               ; preds = %3
  %65 = load ptr, ptr %4, align 8
  %66 = load ptr, ptr %7, align 8
  %67 = load ptr, ptr %6, align 8
  call void @extcap_process_interfaces_cb(ptr noundef %65, ptr noundef %66, ptr noundef %67)
  br label %68

68:                                               ; preds = %64, %44
  call void @llvm.lifetime.end.p0(i64 8, ptr %7) #9
  ret void
}