; Function Attrs: null_pointer_is_valid sspstrong uwtable
define internal void @extcap_list_interfaces_cb(ptr noundef %0, ptr noundef %1, ptr noundef %2) #0 {
  %4 = alloca [2 x ptr], align 16
  %.not = icmp eq ptr %2, null
  br i1 %.not, label %5, label %18

5:                                                ; preds = %3
  call void @llvm.lifetime.start.p0(i64 16, ptr nonnull %4) #9
  call void @llvm.memcpy.p0.p0.i64(ptr noundef nonnull align 16 dereferenceable(16) %4, ptr noundef nonnull align 16 dereferenceable(16) @__const.extcap_list_interfaces_cb.argv, i64 16, i1 false)
  %6 = tail call noalias dereferenceable_or_null(32) ptr @g_malloc0(i64 noundef 32) #11
  %7 = load ptr, ptr %1, align 8
  store ptr %7, ptr %6, align 8
  %8 = call ptr @g_strdupv(ptr noundef nonnull %4)
  %9 = getelementptr inbounds nuw i8, ptr %6, i64 8
  store ptr %8, ptr %9, align 8
  %10 = getelementptr inbounds nuw i8, ptr %6, i64 16
  store ptr @extcap_process_interfaces_cb, ptr %10, align 8
  %11 = getelementptr inbounds nuw i8, ptr %6, i64 24
  store ptr %1, ptr %11, align 8
  %12 = getelementptr inbounds nuw i8, ptr %0, i64 32
  call void @g_mutex_lock(ptr noundef nonnull %12)
  %13 = getelementptr inbounds nuw i8, ptr %0, i64 8
  %14 = load i32, ptr %13, align 8
  %15 = add i32 %14, 1
  store i32 %15, ptr %13, align 8
  call void @g_mutex_unlock(ptr noundef nonnull %12)
  %16 = load ptr, ptr %0, align 8
  %17 = call i32 @g_thread_pool_push(ptr noundef %16, ptr noundef %6, ptr noundef null)
  call void @llvm.lifetime.end.p0(i64 16, ptr nonnull %4) #9
  br label %19

18:                                               ; preds = %3
  tail call void @extcap_process_interfaces_cb(ptr noundef %0, ptr noundef %1, ptr noundef nonnull %2)
  br label %19

19:                                               ; preds = %18, %5
  ret void
}